target datalayout = "e-m:e-p270:32:32-p271:32:32-p272:64:64-i64:64-i128:128-f80:128-n8:16:32:64-S128"
target triple = "x86_64-pc-linux-gnu"

%struct._FUserData = type { ptr, ptr, ptr, ptr, ptr, ptr, ptr, ptr, ptr }

; Function Attrs: nounwind uwtable
define internal zeroext i1 @intermediate_cb(i32 noundef %0, i32 noundef %1, double noundef %2, double noundef %3, double noundef %4, double noundef %5, double noundef %6, double noundef %7, double noundef %8, double noundef %9, i32 noundef %10, ptr noundef %11) #0 {
  %13 = alloca i1, align 1
  %14 = alloca i32, align 4
  %15 = alloca i32, align 4
  %16 = alloca double, align 8
  %17 = alloca double, align 8
  %18 = alloca double, align 8
  %19 = alloca double, align 8
  %20 = alloca double, align 8
  %21 = alloca double, align 8
  %22 = alloca double, align 8
  %23 = alloca double, align 8
  %24 = alloca i32, align 4
  %25 = alloca ptr, align 8
  %26 = alloca ptr, align 8
  %27 = alloca i32, align 4
  %28 = alloca i32, align 4
  %29 = alloca double, align 8
  %30 = alloca double, align 8
  %31 = alloca double, align 8
  %32 = alloca double, align 8
  %33 = alloca double, align 8
  %34 = alloca double, align 8
  %35 = alloca double, align 8
  %36 = alloca double, align 8
  %37 = alloca i32, align 4
  %38 = alloca ptr, align 8
  %39 = alloca ptr, align 8
  %40 = alloca i32, align 4
  %41 = alloca i32, align 4
  store i32 %0, ptr %14, align 4, !tbaa !11
  store i32 %1, ptr %15, align 4, !tbaa !11
  store double %2, ptr %16, align 8, !tbaa !30
  store double %3, ptr %17, align 8, !tbaa !30
  store double %4, ptr %18, align 8, !tbaa !30
  store double %5, ptr %19, align 8, !tbaa !30
  store double %6, ptr %20, align 8, !tbaa !30
  store double %7, ptr %21, align 8, !tbaa !30
  store double %8, ptr %22, align 8, !tbaa !30
  store double %9, ptr %23, align 8, !tbaa !30
  store i32 %10, ptr %24, align 4, !tbaa !11
  store ptr %11, ptr %25, align 8, !tbaa !10
  call void @llvm.lifetime.start.p0(i64 8, ptr %26) #6
  %42 = load ptr, ptr %25, align 8, !tbaa !10
  store ptr %42, ptr %26, align 8, !tbaa !13
  call void @llvm.lifetime.start.p0(i64 4, ptr %27) #6
  %43 = load i32, ptr %14, align 4, !tbaa !11
  store i32 %43, ptr %27, align 4, !tbaa !11
  call void @llvm.lifetime.start.p0(i64 4, ptr %28) #6
  %44 = load i32, ptr %15, align 4, !tbaa !11
  store i32 %44, ptr %28, align 4, !tbaa !11
  call void @llvm.lifetime.start.p0(i64 8, ptr %29) #6
  %45 = load double, ptr %16, align 8, !tbaa !30
  store double %45, ptr %29, align 8, !tbaa !30
  call void @llvm.lifetime.start.p0(i64 8, ptr %30) #6
  %46 = load double, ptr %17, align 8, !tbaa !30
  store double %46, ptr %30, align 8, !tbaa !30
  call void @llvm.lifetime.start.p0(i64 8, ptr %31) #6
  %47 = load double, ptr %18, align 8, !tbaa !30
  store double %47, ptr %31, align 8, !tbaa !30
  call void @llvm.lifetime.start.p0(i64 8, ptr %32) #6
  %48 = load double, ptr %19, align 8, !tbaa !30
  store double %48, ptr %32, align 8, !tbaa !30
  call void @llvm.lifetime.start.p0(i64 8, ptr %33) #6
  %49 = load double, ptr %20, align 8, !tbaa !30
  store double %49, ptr %33, align 8, !tbaa !30
  call void @llvm.lifetime.start.p0(i64 8, ptr %34) #6
  %50 = load double, ptr %21, align 8, !tbaa !30
  store double %50, ptr %34, align 8, !tbaa !30
  call void @llvm.lifetime.start.p0(i64 8, ptr %35) #6
  %51 = load double, ptr %22, align 8, !tbaa !30
  store double %51, ptr %35, align 8, !tbaa !30
  call void @llvm.lifetime.start.p0(i64 8, ptr %36) #6
  %52 = load double, ptr %23, align 8, !tbaa !30
  store double %52, ptr %36, align 8, !tbaa !30
  call void @llvm.lifetime.start.p0(i64 4, ptr %37) #6
  %53 = load i32, ptr %24, align 4, !tbaa !11
  store i32 %53, ptr %37, align 4, !tbaa !11
  call void @llvm.lifetime.start.p0(i64 8, ptr %38) #6
  %54 = load ptr, ptr %26, align 8, !tbaa !13
  %55 = getelementptr inbounds nuw %struct._FUserData, ptr %54, i32 0, i32 0
  %56 = load ptr, ptr %55, align 8, !tbaa !28
  store ptr %56, ptr %38, align 8, !tbaa !3
  call void @llvm.lifetime.start.p0(i64 8, ptr %39) #6
  %57 = load ptr, ptr %26, align 8, !tbaa !13
  %58 = getelementptr inbounds nuw %struct._FUserData, ptr %57, i32 0, i32 1
  %59 = load ptr, ptr %58, align 8, !tbaa !29
  store ptr %59, ptr %39, align 8, !tbaa !8
  call void @llvm.lifetime.start.p0(i64 4, ptr %40) #6
  store i32 0, ptr %40, align 4, !tbaa !11
  %60 = load ptr, ptr %26, align 8, !tbaa !13
  %61 = getelementptr inbounds nuw %struct._FUserData, ptr %60, i32 0, i32 7
  %62 = load ptr, ptr %61, align 8, !tbaa !23
  %63 = icmp ne ptr %62, null
  br i1 %63, label %65, label %64

64:                                               ; preds = %12
  store i1 true, ptr %13, align 1
  store i32 1, ptr %41, align 4
  br label %73

65:                                               ; preds = %12
  %66 = load ptr, ptr %26, align 8, !tbaa !13
  %67 = getelementptr inbounds nuw %struct._FUserData, ptr %66, i32 0, i32 7
  %68 = load ptr, ptr %67, align 8, !tbaa !23
  %69 = load ptr, ptr %38, align 8, !tbaa !3
  %70 = load ptr, ptr %39, align 8, !tbaa !8
  call void %68(ptr noundef %27, ptr noundef %28, ptr noundef %29, ptr noundef %30, ptr noundef %31, ptr noundef %32, ptr noundef %33, ptr noundef %34, ptr noundef %35, ptr noundef %36, ptr noundef %37, ptr noundef %69, ptr noundef %70, ptr noundef %40)
  %71 = load i32, ptr %40, align 4, !tbaa !11
  %72 = icmp eq i32 %71, 0
  store i1 %72, ptr %13, align 1
  store i32 1, ptr %41, align 4
  br label %73

73:                                               ; preds = %65, %64
  call void @llvm.lifetime.end.p0(i64 4, ptr %40) #6
  call void @llvm.lifetime.end.p0(i64 8, ptr %39) #6
  call void @llvm.lifetime.end.p0(i64 8, ptr %38) #6
  call void @llvm.lifetime.end.p0(i64 4, ptr %37) #6
  call void @llvm.lifetime.end.p0(i64 8, ptr %36) #6
  call void @llvm.lifetime.end.p0(i64 8, ptr %35) #6
  call void @llvm.lifetime.end.p0(i64 8, ptr %34) #6
  call void @llvm.lifetime.end.p0(i64 8, ptr %33) #6
  call void @llvm.lifetime.end.p0(i64 8, ptr %32) #6
  call void @llvm.lifetime.end.p0(i64 8, ptr %31) #6
  call void @llvm.lifetime.end.p0(i64 8, ptr %30) #6
  call void @llvm.lifetime.end.p0(i64 8, ptr %29) #6
  call void @llvm.lifetime.end.p0(i64 4, ptr %28) #6
  call void @llvm.lifetime.end.p0(i64 4, ptr %27) #6
  call void @llvm.lifetime.end.p0(i64 8, ptr %26) #6
  %74 = load i1, ptr %13, align 1
  ret i1 %74
}