; Function Attrs: nounwind uwtable
define internal zeroext i1 @intermediate_cb(i32 noundef %0, i32 noundef %1, double noundef %2, double noundef %3, double noundef %4, double noundef %5, double noundef %6, double noundef %7, double noundef %8, double noundef %9, i32 noundef %10, ptr noundef readonly captures(none) %11) #0 {
  %13 = alloca i32, align 4
  %14 = alloca i32, align 4
  %15 = alloca double, align 8
  %16 = alloca double, align 8
  %17 = alloca double, align 8
  %18 = alloca double, align 8
  %19 = alloca double, align 8
  %20 = alloca double, align 8
  %21 = alloca double, align 8
  %22 = alloca double, align 8
  %23 = alloca i32, align 4
  %24 = alloca i32, align 4
  call void @llvm.lifetime.start.p0(i64 4, ptr nonnull %13) #8
  store i32 %0, ptr %13, align 4, !tbaa !3
  call void @llvm.lifetime.start.p0(i64 4, ptr nonnull %14) #8
  store i32 %1, ptr %14, align 4, !tbaa !3
  call void @llvm.lifetime.start.p0(i64 8, ptr nonnull %15) #8
  store double %2, ptr %15, align 8, !tbaa !21
  call void @llvm.lifetime.start.p0(i64 8, ptr nonnull %16) #8
  store double %3, ptr %16, align 8, !tbaa !21
  call void @llvm.lifetime.start.p0(i64 8, ptr nonnull %17) #8
  store double %4, ptr %17, align 8, !tbaa !21
  call void @llvm.lifetime.start.p0(i64 8, ptr nonnull %18) #8
  store double %5, ptr %18, align 8, !tbaa !21
  call void @llvm.lifetime.start.p0(i64 8, ptr nonnull %19) #8
  store double %6, ptr %19, align 8, !tbaa !21
  call void @llvm.lifetime.start.p0(i64 8, ptr nonnull %20) #8
  store double %7, ptr %20, align 8, !tbaa !21
  call void @llvm.lifetime.start.p0(i64 8, ptr nonnull %21) #8
  store double %8, ptr %21, align 8, !tbaa !21
  call void @llvm.lifetime.start.p0(i64 8, ptr nonnull %22) #8
  store double %9, ptr %22, align 8, !tbaa !21
  call void @llvm.lifetime.start.p0(i64 4, ptr nonnull %23) #8
  store i32 %10, ptr %23, align 4, !tbaa !3
  %25 = load ptr, ptr %11, align 8, !tbaa !19
  %26 = getelementptr inbounds nuw i8, ptr %11, i64 8
  %27 = load ptr, ptr %26, align 8, !tbaa !20
  call void @llvm.lifetime.start.p0(i64 4, ptr nonnull %24) #8
  store i32 0, ptr %24, align 4, !tbaa !3
  %28 = getelementptr inbounds nuw i8, ptr %11, i64 56
  %29 = load ptr, ptr %28, align 8, !tbaa !18
  %.not = icmp eq ptr %29, null
  br i1 %.not, label %33, label %30

30:                                               ; preds = %12
  call void %29(ptr noundef nonnull %13, ptr noundef nonnull %14, ptr noundef nonnull %15, ptr noundef nonnull %16, ptr noundef nonnull %17, ptr noundef nonnull %18, ptr noundef nonnull %19, ptr noundef nonnull %20, ptr noundef nonnull %21, ptr noundef nonnull %22, ptr noundef nonnull %23, ptr noundef %25, ptr noundef %27, ptr noundef nonnull %24) #8
  %31 = load i32, ptr %24, align 4, !tbaa !3
  %32 = icmp eq i32 %31, 0
  br label %33

33:                                               ; preds = %12, %30
  %.0 = phi i1 [ %32, %30 ], [ true, %12 ]
  call void @llvm.lifetime.end.p0(i64 4, ptr nonnull %24) #8
  call void @llvm.lifetime.end.p0(i64 4, ptr nonnull %23) #8
  call void @llvm.lifetime.end.p0(i64 8, ptr nonnull %22) #8
  call void @llvm.lifetime.end.p0(i64 8, ptr nonnull %21) #8
  call void @llvm.lifetime.end.p0(i64 8, ptr nonnull %20) #8
  call void @llvm.lifetime.end.p0(i64 8, ptr nonnull %19) #8
  call void @llvm.lifetime.end.p0(i64 8, ptr nonnull %18) #8
  call void @llvm.lifetime.end.p0(i64 8, ptr nonnull %17) #8
  call void @llvm.lifetime.end.p0(i64 8, ptr nonnull %16) #8
  call void @llvm.lifetime.end.p0(i64 8, ptr nonnull %15) #8
  call void @llvm.lifetime.end.p0(i64 4, ptr nonnull %14) #8
  call void @llvm.lifetime.end.p0(i64 4, ptr nonnull %13) #8
  ret i1 %.0
}